target datalayout = "e-m:e-p270:32:32-p271:32:32-p272:64:64-i64:64-i128:128-f80:128-n8:16:32:64-S128"
target triple = "x86_64-pc-linux-gnu"

%struct.sfparse_parser = type { ptr, ptr, i32 }
%struct.sfparse_value = type { i32, i32, %union.anon }
%union.anon = type { %struct.sfparse_decimal }
%struct.sfparse_decimal = type { i64, i64 }

@.str = private unnamed_addr constant [2 x i8] c"0\00", align 1
@.str.1 = private unnamed_addr constant [107 x i8] c"generated/home/dtcxzyw/WorkSpace/Projects/compilers/llvm-opt-benchmark/bench/nghttp2/nghttp2/lib/sfparse.c\00", align 1
@__PRETTY_FUNCTION__.sfparse_parser_param = private unnamed_addr constant [75 x i8] c"int sfparse_parser_param(sfparse_parser *, sfparse_vec *, sfparse_value *)\00", align 1
@__PRETTY_FUNCTION__.parser_skip_inner_list = private unnamed_addr constant [45 x i8] c"int parser_skip_inner_list(sfparse_parser *)\00", align 1

; Function Attrs: nounwind uwtable
define internal void @parser_discard_sp(ptr noundef %0) #0 {
  %2 = alloca ptr, align 8
  store ptr %0, ptr %2, align 8, !tbaa !3
  br label %3

3:                                                ; preds = %17, %1
  %4 = load ptr, ptr %2, align 8, !tbaa !3
  %5 = call i32 @parser_eof(ptr noundef %4)
  %6 = icmp ne i32 %5, 0
  br i1 %6, label %14, label %7

7:                                                ; preds = %3
  %8 = load ptr, ptr %2, align 8, !tbaa !3
  %9 = getelementptr inbounds nuw %struct.sfparse_parser, ptr %8, i32 0, i32 0
  %10 = load ptr, ptr %9, align 8, !tbaa !17
  %11 = load i8, ptr %10, align 1, !tbaa !18
  %12 = zext i8 %11 to i32
  %13 = icmp eq i32 %12, 32
  br label %14

14:                                               ; preds = %7, %3
  %15 = phi i1 [ false, %3 ], [ %13, %7 ]
  br i1 %15, label %16, label %22

16:                                               ; preds = %14
  br label %17

17:                                               ; preds = %16
  %18 = load ptr, ptr %2, align 8, !tbaa !3
  %19 = getelementptr inbounds nuw %struct.sfparse_parser, ptr %18, i32 0, i32 0
  %20 = load ptr, ptr %19, align 8, !tbaa !17
  %21 = getelementptr inbounds nuw i8, ptr %20, i32 1
  store ptr %21, ptr %19, align 8, !tbaa !17
  br label %3, !llvm.loop !23

22:                                               ; preds = %14
  ret void
}

; Function Attrs: nounwind uwtable
define internal i32 @parser_eof(ptr noundef %0) #0 {
  %2 = alloca ptr, align 8
  store ptr %0, ptr %2, align 8, !tbaa !3
  %3 = load ptr, ptr %2, align 8, !tbaa !3
  %4 = getelementptr inbounds nuw %struct.sfparse_parser, ptr %3, i32 0, i32 0
  %5 = load ptr, ptr %4, align 8, !tbaa !17
  %6 = load ptr, ptr %2, align 8, !tbaa !3
  %7 = getelementptr inbounds nuw %struct.sfparse_parser, ptr %6, i32 0, i32 1
  %8 = load ptr, ptr %7, align 8, !tbaa !22
  %9 = icmp eq ptr %5, %8
  %10 = zext i1 %9 to i32
  ret i32 %10
}

; Function Attrs: nounwind uwtable
define internal void @parser_set_op_state(ptr noundef %0, i32 noundef %1) #0 {
  %3 = alloca ptr, align 8
  %4 = alloca i32, align 4
  store ptr %0, ptr %3, align 8, !tbaa !3
  store i32 %1, ptr %4, align 4, !tbaa !16
  %5 = load ptr, ptr %3, align 8, !tbaa !3
  %6 = getelementptr inbounds nuw %struct.sfparse_parser, ptr %5, i32 0, i32 2
  %7 = load i32, ptr %6, align 8, !tbaa !12
  %8 = and i32 %7, -4
  store i32 %8, ptr %6, align 8, !tbaa !12
  %9 = load i32, ptr %4, align 4, !tbaa !16
  %10 = load ptr, ptr %3, align 8, !tbaa !3
  %11 = getelementptr inbounds nuw %struct.sfparse_parser, ptr %10, i32 0, i32 2
  %12 = load i32, ptr %11, align 8, !tbaa !12
  %13 = or i32 %12, %9
  store i32 %13, ptr %11, align 8, !tbaa !12
  ret void
}

; Function Attrs: nounwind uwtable
define internal i32 @parser_skip_inner_list(ptr noundef %0) #0 {
  %2 = alloca i32, align 4
  %3 = alloca ptr, align 8
  %4 = alloca i32, align 4
  %5 = alloca i32, align 4
  store ptr %0, ptr %3, align 8, !tbaa !3
  call void @llvm.lifetime.start.p0(i64 4, ptr %4) #5
  br label %6

6:                                                ; preds = %14, %1
  %7 = load ptr, ptr %3, align 8, !tbaa !3
  %8 = call i32 @sfparse_parser_inner_list(ptr noundef %7, ptr noundef null)
  store i32 %8, ptr %4, align 4, !tbaa !16
  %9 = load i32, ptr %4, align 4, !tbaa !16
  switch i32 %9, label %13 [
    i32 0, label %14
    i32 -2, label %10
    i32 -1, label %11
  ]

10:                                               ; preds = %6
  store i32 0, ptr %2, align 4
  store i32 1, ptr %5, align 4
  br label %15

11:                                               ; preds = %6
  %12 = load i32, ptr %4, align 4, !tbaa !16
  store i32 %12, ptr %2, align 4
  store i32 1, ptr %5, align 4
  br label %15

13:                                               ; preds = %6
  call void @__assert_fail(ptr noundef @.str, ptr noundef @.str.1, i32 noundef 1365, ptr noundef @__PRETTY_FUNCTION__.parser_skip_inner_list) #6
  unreachable

14:                                               ; preds = %6
  br label %6

15:                                               ; preds = %11, %10
  call void @llvm.lifetime.end.p0(i64 4, ptr %4) #5
  %16 = load i32, ptr %2, align 4
  ret i32 %16
}

; Function Attrs: nounwind uwtable
define hidden i32 @sfparse_parser_param(ptr noundef %0, ptr noundef %1, ptr noundef %2) #0 {
  %4 = alloca i32, align 4
  %5 = alloca ptr, align 8
  %6 = alloca ptr, align 8
  %7 = alloca ptr, align 8
  %8 = alloca i32, align 4
  %9 = alloca i32, align 4
  store ptr %0, ptr %5, align 8, !tbaa !3
  store ptr %1, ptr %6, align 8, !tbaa !8
  store ptr %2, ptr %7, align 8, !tbaa !10
  call void @llvm.lifetime.start.p0(i64 4, ptr %8) #5
  %10 = load ptr, ptr %5, align 8, !tbaa !3
  %11 = getelementptr inbounds nuw %struct.sfparse_parser, ptr %10, i32 0, i32 2
  %12 = load i32, ptr %11, align 8, !tbaa !12
  %13 = and i32 %12, 3
  switch i32 %13, label %24 [
    i32 0, label %14
    i32 1, label %22
    i32 2, label %25
  ]

14:                                               ; preds = %3
  %15 = load ptr, ptr %5, align 8, !tbaa !3
  %16 = call i32 @parser_skip_inner_list(ptr noundef %15)
  store i32 %16, ptr %8, align 4, !tbaa !16
  %17 = load i32, ptr %8, align 4, !tbaa !16
  %18 = icmp ne i32 %17, 0
  br i1 %18, label %19, label %21

19:                                               ; preds = %14
  %20 = load i32, ptr %8, align 4, !tbaa !16
  store i32 %20, ptr %4, align 4
  store i32 1, ptr %9, align 4
  br label %91

21:                                               ; preds = %14
  br label %22

22:                                               ; preds = %3, %21
  %23 = load ptr, ptr %5, align 8, !tbaa !3
  call void @parser_set_op_state(ptr noundef %23, i32 noundef 2)
  br label %25

24:                                               ; preds = %3
  call void @__assert_fail(ptr noundef @.str, ptr noundef @.str.1, i32 noundef 1226, ptr noundef @__PRETTY_FUNCTION__.sfparse_parser_param) #6
  unreachable

25:                                               ; preds = %3, %22
  %26 = load ptr, ptr %5, align 8, !tbaa !3
  %27 = call i32 @parser_eof(ptr noundef %26)
  %28 = icmp ne i32 %27, 0
  br i1 %28, label %36, label %29

29:                                               ; preds = %25
  %30 = load ptr, ptr %5, align 8, !tbaa !3
  %31 = getelementptr inbounds nuw %struct.sfparse_parser, ptr %30, i32 0, i32 0
  %32 = load ptr, ptr %31, align 8, !tbaa !17
  %33 = load i8, ptr %32, align 1, !tbaa !18
  %34 = zext i8 %33 to i32
  %35 = icmp ne i32 %34, 59
  br i1 %35, label %36, label %38

36:                                               ; preds = %29, %25
  %37 = load ptr, ptr %5, align 8, !tbaa !3
  call void @parser_set_op_state(ptr noundef %37, i32 noundef 3)
  store i32 -2, ptr %4, align 4
  store i32 1, ptr %9, align 4
  br label %91

38:                                               ; preds = %29
  %39 = load ptr, ptr %5, align 8, !tbaa !3
  %40 = getelementptr inbounds nuw %struct.sfparse_parser, ptr %39, i32 0, i32 0
  %41 = load ptr, ptr %40, align 8, !tbaa !17
  %42 = getelementptr inbounds nuw i8, ptr %41, i32 1
  store ptr %42, ptr %40, align 8, !tbaa !17
  %43 = load ptr, ptr %5, align 8, !tbaa !3
  call void @parser_discard_sp(ptr noundef %43)
  %44 = load ptr, ptr %5, align 8, !tbaa !3
  %45 = call i32 @parser_eof(ptr noundef %44)
  %46 = icmp ne i32 %45, 0
  br i1 %46, label %47, label %48

47:                                               ; preds = %38
  store i32 -1, ptr %4, align 4
  store i32 1, ptr %9, align 4
  br label %91

48:                                               ; preds = %38
  %49 = load ptr, ptr %5, align 8, !tbaa !3
  %50 = load ptr, ptr %6, align 8, !tbaa !8
  %51 = call i32 @parser_key(ptr noundef %49, ptr noundef %50)
  store i32 %51, ptr %8, align 4, !tbaa !16
  %52 = load i32, ptr %8, align 4, !tbaa !16
  %53 = icmp ne i32 %52, 0
  br i1 %53, label %54, label %56

54:                                               ; preds = %48
  %55 = load i32, ptr %8, align 4, !tbaa !16
  store i32 %55, ptr %4, align 4
  store i32 1, ptr %9, align 4
  br label %91

56:                                               ; preds = %48
  %57 = load ptr, ptr %5, align 8, !tbaa !3
  %58 = call i32 @parser_eof(ptr noundef %57)
  %59 = icmp ne i32 %58, 0
  br i1 %59, label %67, label %60

60:                                               ; preds = %56
  %61 = load ptr, ptr %5, align 8, !tbaa !3
  %62 = getelementptr inbounds nuw %struct.sfparse_parser, ptr %61, i32 0, i32 0
  %63 = load ptr, ptr %62, align 8, !tbaa !17
  %64 = load i8, ptr %63, align 1, !tbaa !18
  %65 = zext i8 %64 to i32
  %66 = icmp ne i32 %65, 61
  br i1 %66, label %67, label %78

67:                                               ; preds = %60, %56
  %68 = load ptr, ptr %7, align 8, !tbaa !10
  %69 = icmp ne ptr %68, null
  br i1 %69, label %70, label %77

70:                                               ; preds = %67
  %71 = load ptr, ptr %7, align 8, !tbaa !10
  %72 = getelementptr inbounds nuw %struct.sfparse_value, ptr %71, i32 0, i32 0
  store i32 0, ptr %72, align 8, !tbaa !19
  %73 = load ptr, ptr %7, align 8, !tbaa !10
  %74 = getelementptr inbounds nuw %struct.sfparse_value, ptr %73, i32 0, i32 1
  store i32 0, ptr %74, align 4, !tbaa !21
  %75 = load ptr, ptr %7, align 8, !tbaa !10
  %76 = getelementptr inbounds nuw %struct.sfparse_value, ptr %75, i32 0, i32 2
  store i32 1, ptr %76, align 8, !tbaa !18
  br label %77

77:                                               ; preds = %70, %67
  store i32 0, ptr %4, align 4
  store i32 1, ptr %9, align 4
  br label %91

78:                                               ; preds = %60
  %79 = load ptr, ptr %5, align 8, !tbaa !3
  %80 = getelementptr inbounds nuw %struct.sfparse_parser, ptr %79, i32 0, i32 0
  %81 = load ptr, ptr %80, align 8, !tbaa !17
  %82 = getelementptr inbounds nuw i8, ptr %81, i32 1
  store ptr %82, ptr %80, align 8, !tbaa !17
  %83 = load ptr, ptr %5, align 8, !tbaa !3
  %84 = call i32 @parser_eof(ptr noundef %83)
  %85 = icmp ne i32 %84, 0
  br i1 %85, label %86, label %87

86:                                               ; preds = %78
  store i32 -1, ptr %4, align 4
  store i32 1, ptr %9, align 4
  br label %91

87:                                               ; preds = %78
  %88 = load ptr, ptr %5, align 8, !tbaa !3
  %89 = load ptr, ptr %7, align 8, !tbaa !10
  %90 = call i32 @parser_bare_item(ptr noundef %88, ptr noundef %89)
  store i32 %90, ptr %4, align 4
  store i32 1, ptr %9, align 4
  br label %91

91:                                               ; preds = %87, %86, %77, %54, %47, %36, %19
  call void @llvm.lifetime.end.p0(i64 4, ptr %8) #5
  %92 = load i32, ptr %4, align 4
  ret i32 %92
}