; Function Attrs: nounwind uwtable
define hidden range(i32 -2, 1) i32 @sfparse_parser_param(ptr noundef captures(none) %0, ptr noundef %1, ptr noundef %2) local_unnamed_addr #0 {
  %4 = getelementptr inbounds nuw i8, ptr %0, i64 16
  %5 = load i32, ptr %4, align 8, !tbaa !3
  %6 = and i32 %5, 3
  switch i32 %6, label %default.unreachable50 [
    i32 0, label %.preheader
    i32 1, label %parser_skip_inner_list.exit.thread
    i32 2, label %13
    i32 3, label %12
  ]

.preheader:                                       ; preds = %3, %.preheader
  %7 = tail call i32 @sfparse_parser_inner_list(ptr noundef nonnull %0, ptr noundef null)
  switch i32 %7, label %8 [
    i32 0, label %.preheader
    i32 -2, label %parser_skip_inner_list.exit.thread.loopexit
    i32 -1, label %parser_skip_inner_list.exit
  ]

8:                                                ; preds = %.preheader
  tail call void @__assert_fail(ptr noundef nonnull @.str, ptr noundef nonnull @.str.1, i32 noundef 1365, ptr noundef nonnull @__PRETTY_FUNCTION__.parser_skip_inner_list) #8
  unreachable

parser_skip_inner_list.exit.thread.loopexit:      ; preds = %.preheader
  %.pre = load i32, ptr %4, align 8, !tbaa !3
  br label %parser_skip_inner_list.exit.thread

parser_skip_inner_list.exit.thread:               ; preds = %parser_skip_inner_list.exit.thread.loopexit, %3
  %9 = phi i32 [ %.pre, %parser_skip_inner_list.exit.thread.loopexit ], [ %5, %3 ]
  %10 = and i32 %9, -4
  %11 = or disjoint i32 %10, 2
  store i32 %11, ptr %4, align 8, !tbaa !3
  br label %13

default.unreachable50:                            ; preds = %3
  unreachable

12:                                               ; preds = %3
  tail call void @__assert_fail(ptr noundef nonnull @.str, ptr noundef nonnull @.str.1, i32 noundef 1226, ptr noundef nonnull @__PRETTY_FUNCTION__.sfparse_parser_param) #8
  unreachable

13:                                               ; preds = %3, %parser_skip_inner_list.exit.thread
  %14 = phi i32 [ %5, %3 ], [ %11, %parser_skip_inner_list.exit.thread ]
  %.val = load ptr, ptr %0, align 8, !tbaa !10
  %15 = getelementptr i8, ptr %0, i64 8
  %.val36 = load ptr, ptr %15, align 8, !tbaa !11
  %.not = icmp eq ptr %.val, %.val36
  br i1 %.not, label %18, label %16

16:                                               ; preds = %13
  %17 = load i8, ptr %.val, align 1, !tbaa !12
  %.not29 = icmp eq i8 %17, 59
  br i1 %.not29, label %20, label %18

18:                                               ; preds = %16, %13
  %19 = or i32 %14, 3
  store i32 %19, ptr %4, align 8, !tbaa !3
  br label %parser_skip_inner_list.exit

20:                                               ; preds = %16
  %21 = getelementptr inbounds nuw i8, ptr %.val, i64 1
  store ptr %21, ptr %0, align 8, !tbaa !10
  %.not5.i = icmp eq ptr %21, %.val36
  br i1 %.not5.i, label %parser_skip_inner_list.exit, label %.lr.ph.i

.lr.ph.i:                                         ; preds = %20, %24
  %.val46.i = phi ptr [ %25, %24 ], [ %21, %20 ]
  %22 = load i8, ptr %.val46.i, align 1, !tbaa !12
  %23 = icmp eq i8 %22, 32
  br i1 %23, label %24, label %parser_discard_sp.exit

24:                                               ; preds = %.lr.ph.i
  %25 = getelementptr inbounds nuw i8, ptr %.val46.i, i64 1
  store ptr %25, ptr %0, align 8, !tbaa !10
  %.not.i = icmp eq ptr %25, %.val36
  br i1 %.not.i, label %parser_skip_inner_list.exit, label %.lr.ph.i, !llvm.loop !13

parser_discard_sp.exit:                           ; preds = %.lr.ph.i
  %.not45 = icmp eq ptr %.val46.i, %.val36
  br i1 %.not45, label %parser_skip_inner_list.exit, label %26

26:                                               ; preds = %parser_discard_sp.exit
  %27 = tail call fastcc i32 @parser_key(ptr noundef nonnull %0, ptr noundef %1)
  %.not31 = icmp eq i32 %27, 0
  br i1 %.not31, label %28, label %parser_skip_inner_list.exit

28:                                               ; preds = %26
  %.val39 = load ptr, ptr %0, align 8, !tbaa !10
  %.val40 = load ptr, ptr %15, align 8, !tbaa !11
  %.not46 = icmp eq ptr %.val39, %.val40
  br i1 %.not46, label %31, label %29

29:                                               ; preds = %28
  %30 = load i8, ptr %.val39, align 1, !tbaa !12
  %.not33 = icmp eq i8 %30, 61
  br i1 %.not33, label %35, label %31

31:                                               ; preds = %29, %28
  %.not35 = icmp eq ptr %2, null
  br i1 %.not35, label %parser_skip_inner_list.exit, label %32

32:                                               ; preds = %31
  store i32 0, ptr %2, align 8, !tbaa !15
  %33 = getelementptr inbounds nuw i8, ptr %2, i64 4
  store i32 0, ptr %33, align 4, !tbaa !17
  %34 = getelementptr inbounds nuw i8, ptr %2, i64 8
  store i32 1, ptr %34, align 8, !tbaa !12
  br label %parser_skip_inner_list.exit

35:                                               ; preds = %29
  %36 = getelementptr inbounds nuw i8, ptr %.val39, i64 1
  store ptr %36, ptr %0, align 8, !tbaa !10
  %.not47 = icmp eq ptr %36, %.val40
  br i1 %.not47, label %parser_skip_inner_list.exit, label %37

37:                                               ; preds = %35
  %38 = tail call fastcc i32 @parser_bare_item(ptr noundef nonnull %0, ptr noundef %2)
  br label %parser_skip_inner_list.exit

parser_skip_inner_list.exit:                      ; preds = %.preheader, %24, %20, %35, %31, %32, %26, %parser_discard_sp.exit, %37, %18
  %.0 = phi i32 [ -2, %18 ], [ %38, %37 ], [ -1, %parser_discard_sp.exit ], [ -1, %26 ], [ 0, %32 ], [ 0, %31 ], [ -1, %35 ], [ -1, %20 ], [ -1, %24 ], [ %7, %.preheader ]
  ret i32 %.0
}